; Function Attrs: mustprogress uwtable
define void @_ZN3gmx28TrajectoryAnalysisModuleDataC2EPNS_24TrajectoryAnalysisModuleERKNS_27AnalysisDataParallelOptionsERKNS_19SelectionCollectionE(ptr noundef nonnull writeonly align 8 captures(none) dereferenceable(16) initializes((0, 8)) %0, ptr noundef %1, ptr noundef nonnull align 1 %2, ptr noundef nonnull align 1 %3) unnamed_addr #2 align 2 personality ptr @__gxx_personality_v0 {
  store ptr getelementptr inbounds nuw inrange(-16, 24) (i8, ptr @_ZTVN3gmx28TrajectoryAnalysisModuleDataE, i64 16), ptr %0, align 8, !tbaa !4
  %5 = tail call noalias noundef nonnull dereferenceable(56) ptr @_Znwm(i64 noundef 56) #27
  invoke void @_ZN3gmx28TrajectoryAnalysisModuleData4ImplC1EPNS_24TrajectoryAnalysisModuleERKNS_27AnalysisDataParallelOptionsERKNS_19SelectionCollectionE(ptr noundef nonnull align 8 dereferenceable(56) %5, ptr noundef %1, ptr noundef nonnull align 1 %2, ptr noundef nonnull align 1 %3)
          to label %6 unwind label %8

6:                                                ; preds = %4
  %7 = getelementptr inbounds nuw i8, ptr %0, i64 8
  store ptr %5, ptr %7, align 8, !tbaa !7
  ret void

8:                                                ; preds = %4
  %9 = landingpad { ptr, i32 }
          cleanup
  tail call void @_ZdlPvm(ptr noundef nonnull %5, i64 noundef 56) #28
  resume { ptr, i32 } %9
}